; Function Attrs: null_pointer_is_valid sspstrong uwtable
define internal i32 @glusterfs_gfs4_0_op_fentrylk_call(ptr noundef %0, ptr readnone captures(none) %1, ptr noundef %2, ptr readnone captures(none) %3) #0 {
  %5 = load i32, ptr @hf_glusterfs_gfid, align 4
  %6 = tail call ptr @proto_tree_add_item(ptr noundef %2, i32 noundef %5, ptr noundef %0, i32 noundef 0, i32 noundef 16, i32 noundef 0)
  %7 = load i32, ptr @hf_glusterfs_fd, align 4
  %8 = tail call i32 @dissect_rpc_uint64(ptr noundef %0, ptr noundef %2, i32 noundef %7, i32 noundef 16)
  %9 = load i32, ptr @hf_glusterfs_cmd, align 4
  %10 = tail call i32 @dissect_rpc_uint32(ptr noundef %0, ptr noundef %2, i32 noundef %9, i32 noundef %8)
  %11 = load i32, ptr @hf_glusterfs_type, align 4
  %12 = tail call i32 @dissect_rpc_uint32(ptr noundef %0, ptr noundef %2, i32 noundef %11, i32 noundef %10)
  %13 = load i32, ptr @hf_glusterfs_entrylk_namelen, align 4
  %14 = tail call i32 @dissect_rpc_uint64(ptr noundef %0, ptr noundef %2, i32 noundef %13, i32 noundef %12)
  %15 = load i32, ptr @hf_glusterfs_name, align 4
  %16 = tail call i32 @dissect_rpc_string(ptr noundef %0, ptr noundef %2, i32 noundef %15, i32 noundef %14, ptr noundef null)
  %17 = load i32, ptr @hf_glusterfs_volume, align 4
  %18 = tail call i32 @dissect_rpc_string(ptr noundef %0, ptr noundef %2, i32 noundef %17, i32 noundef %16, ptr noundef null)
  %19 = load i32, ptr @hf_glusterfs_dict, align 4
  %20 = tail call fastcc i32 @gluster_rpc4_0_dissect_dict(ptr noundef %2, ptr noundef %0, i32 noundef %19, i32 noundef %18)
  ret i32 %20
}